; Function Attrs: nounwind uwtable
define internal ptr @perf_trampoline_set_persist_after_fork(ptr readnone captures(none) %0, ptr noundef %1) #0 {
  %3 = alloca i32, align 4
  call void @llvm.lifetime.start.p0(i64 4, ptr nonnull %3) #11
  %4 = call i32 (ptr, ptr, ...) @PyArg_ParseTuple(ptr noundef %1, ptr noundef nonnull @.str.254, ptr noundef nonnull %3) #11
  %.not = icmp eq i32 %4, 0
  br i1 %.not, label %14, label %5

5:                                                ; preds = %2
  %6 = load i32, ptr %3, align 4, !tbaa !25
  %7 = call i32 @PyUnstable_PerfTrampoline_SetPersistAfterFork(i32 noundef %6) #11
  %8 = icmp eq i32 %7, 0
  br i1 %8, label %9, label %11

9:                                                ; preds = %5
  %10 = load ptr, ptr @PyExc_AssertionError, align 8, !tbaa !9
  call void @PyErr_SetString(ptr noundef %10, ptr noundef nonnull @.str.255) #11
  br label %14

11:                                               ; preds = %5
  %12 = sext i32 %7 to i64
  %13 = call ptr @PyLong_FromLong(i64 noundef %12) #11
  br label %14

14:                                               ; preds = %9, %11, %2
  %.0 = phi ptr [ null, %2 ], [ null, %9 ], [ %13, %11 ]
  call void @llvm.lifetime.end.p0(i64 4, ptr nonnull %3) #11
  ret ptr %.0
}